; Function Attrs: null_pointer_is_valid sspstrong uwtable
define internal range(i32 5, 8) i32 @decode_dataitem_v4conn(ptr noundef %0, ptr noundef readonly captures(none) %1, ptr noundef %2, ptr readnone captures(none) %3) #0 {
  %5 = alloca i32, align 4
  %6 = tail call ptr @proto_tree_get_parent(ptr noundef %2)
  %7 = tail call i32 @tvb_captured_length(ptr noundef %0)
  call void @llvm.lifetime.start.p0(i64 4, ptr nonnull %5) #5
  %8 = load i32, ptr @hf_dlep_dataitem_v4conn, align 4
  %9 = tail call ptr @proto_tree_add_item(ptr noundef %2, i32 noundef %8, ptr noundef %0, i32 noundef 0, i32 noundef %7, i32 noundef 0)
  %.not.i = icmp eq ptr %9, null
  br i1 %.not.i, label %proto_item_set_hidden.exit, label %10

10:                                               ; preds = %4
  %11 = getelementptr inbounds nuw i8, ptr %9, i64 40
  %12 = load ptr, ptr %11, align 8
  %.not5.i = icmp eq ptr %12, null
  br i1 %.not5.i, label %proto_item_set_hidden.exit, label %13

13:                                               ; preds = %10
  %14 = getelementptr inbounds nuw i8, ptr %12, i64 28
  %15 = load i32, ptr %14, align 4
  %16 = or i32 %15, 1
  store i32 %16, ptr %14, align 4
  br label %proto_item_set_hidden.exit

proto_item_set_hidden.exit:                       ; preds = %4, %10, %13
  %17 = load i32, ptr @hf_dlep_dataitem_v4conn_flags, align 4
  %18 = tail call ptr @proto_tree_add_item(ptr noundef %2, i32 noundef %17, ptr noundef %0, i32 noundef 0, i32 noundef 1, i32 noundef 0)
  %19 = load i32, ptr @ett_dlep_flags, align 4
  %20 = tail call ptr @proto_item_add_subtree(ptr noundef %18, i32 noundef %19)
  %21 = load i32, ptr @hf_dlep_dataitem_v4conn_flags_tls, align 4
  %22 = tail call ptr @proto_tree_add_item(ptr noundef %20, i32 noundef %21, ptr noundef %0, i32 noundef 0, i32 noundef 1, i32 noundef 0)
  %23 = load i32, ptr @hf_dlep_dataitem_v4conn_addr, align 4
  %24 = tail call ptr @proto_tree_add_item(ptr noundef %2, i32 noundef %23, ptr noundef %0, i32 noundef 1, i32 noundef 4, i32 noundef 0)
  %25 = getelementptr inbounds nuw i8, ptr %1, i64 408
  %26 = load ptr, ptr %25, align 8
  %27 = tail call ptr @tvb_address_to_str(ptr noundef %26, ptr noundef %0, i32 noundef 2, i32 noundef 1)
  tail call void (ptr, ptr, ...) @proto_item_append_text(ptr noundef %6, ptr noundef nonnull @.str.207, ptr noundef %27)
  %28 = icmp eq i32 %7, 7
  br i1 %28, label %29, label %33

29:                                               ; preds = %proto_item_set_hidden.exit
  %30 = load i32, ptr @hf_dlep_dataitem_v4conn_port, align 4
  %31 = call ptr @proto_tree_add_item_ret_uint(ptr noundef %2, i32 noundef %30, ptr noundef %0, i32 noundef 5, i32 noundef 2, i32 noundef 0, ptr noundef nonnull %5)
  %32 = load i32, ptr %5, align 4
  call void (ptr, ptr, ...) @proto_item_append_text(ptr noundef %6, ptr noundef nonnull @.str.208, i32 noundef %32)
  br label %33

33:                                               ; preds = %29, %proto_item_set_hidden.exit
  %.0 = phi i32 [ 7, %29 ], [ 5, %proto_item_set_hidden.exit ]
  call void @llvm.lifetime.end.p0(i64 4, ptr nonnull %5) #5
  ret i32 %.0
}